target datalayout = "e-m:e-p270:32:32-p271:32:32-p272:64:64-i64:64-i128:128-f80:128-n8:16:32:64-S128"
target triple = "x86_64-pc-linux-gnu"

; Function Attrs: nounwind uwtable
define internal zeroext i1 @obj_is_focusable(ptr noundef %0) #0 {
  %2 = alloca i1, align 1
  %3 = alloca ptr, align 8
  store ptr %0, ptr %3, align 8, !tbaa !3
  %4 = load ptr, ptr %3, align 8, !tbaa !3
  %5 = call zeroext i1 @lv_obj_has_flag(ptr noundef %4, i32 noundef 1)
  br i1 %5, label %6, label %7

6:                                                ; preds = %1
  store i1 false, ptr %2, align 1
  br label %12

7:                                                ; preds = %1
  %8 = load ptr, ptr %3, align 8, !tbaa !3
  %9 = call zeroext i1 @lv_obj_has_flag(ptr noundef %8, i32 noundef 6)
  br i1 %9, label %10, label %11

10:                                               ; preds = %7
  store i1 true, ptr %2, align 1
  br label %12

11:                                               ; preds = %7
  store i1 false, ptr %2, align 1
  br label %12

12:                                               ; preds = %11, %10, %6
  %13 = load i1, ptr %2, align 1
  ret i1 %13
}

; Function Attrs: nounwind uwtable
define internal ptr @find_last_focusable(ptr noundef %0) #0 {
  %2 = alloca ptr, align 8
  %3 = alloca ptr, align 8
  %4 = alloca i32, align 4
  %5 = alloca i32, align 4
  %6 = alloca ptr, align 8
  %7 = alloca i32, align 4
  store ptr %0, ptr %3, align 8, !tbaa !3
  call void @llvm.lifetime.start.p0(i64 4, ptr %4) #3
  %8 = load ptr, ptr %3, align 8, !tbaa !3
  %9 = call i32 @lv_obj_get_child_count(ptr noundef %8)
  store i32 %9, ptr %4, align 4, !tbaa !7
  call void @llvm.lifetime.start.p0(i64 4, ptr %5) #3
  %10 = load i32, ptr %4, align 4, !tbaa !7
  %11 = sub i32 %10, 1
  store i32 %11, ptr %5, align 4, !tbaa !7
  br label %12

12:                                               ; preds = %27, %1
  %13 = load i32, ptr %5, align 4, !tbaa !7
  %14 = icmp sge i32 %13, 0
  br i1 %14, label %15, label %30

15:                                               ; preds = %12
  call void @llvm.lifetime.start.p0(i64 8, ptr %6) #3
  %16 = load ptr, ptr %3, align 8, !tbaa !3
  %17 = load i32, ptr %5, align 4, !tbaa !7
  %18 = call ptr @lv_obj_get_child(ptr noundef %16, i32 noundef %17)
  store ptr %18, ptr %6, align 8, !tbaa !3
  %19 = load ptr, ptr %6, align 8, !tbaa !3
  %20 = call zeroext i1 @obj_is_focusable(ptr noundef %19)
  br i1 %20, label %21, label %23

21:                                               ; preds = %15
  %22 = load ptr, ptr %6, align 8, !tbaa !3
  store ptr %22, ptr %2, align 8
  store i32 1, ptr %7, align 4
  br label %24

23:                                               ; preds = %15
  store i32 0, ptr %7, align 4
  br label %24

24:                                               ; preds = %23, %21
  call void @llvm.lifetime.end.p0(i64 8, ptr %6) #3
  %25 = load i32, ptr %7, align 4
  switch i32 %25, label %31 [
    i32 0, label %26
  ]

26:                                               ; preds = %24
  br label %27

27:                                               ; preds = %26
  %28 = load i32, ptr %5, align 4, !tbaa !7
  %29 = add nsw i32 %28, -1
  store i32 %29, ptr %5, align 4, !tbaa !7
  br label %12, !llvm.loop !21

30:                                               ; preds = %12
  store ptr null, ptr %2, align 8
  store i32 1, ptr %7, align 4
  br label %31

31:                                               ; preds = %30, %24
  call void @llvm.lifetime.end.p0(i64 4, ptr %5) #3
  call void @llvm.lifetime.end.p0(i64 4, ptr %4) #3
  %32 = load ptr, ptr %2, align 8
  ret ptr %32
}