; Function Attrs: nounwind uwtable
define internal fastcc noundef ptr @find_last_focusable(ptr noundef %0) unnamed_addr #0 {
  %2 = tail call i32 @lv_obj_get_child_count(ptr noundef %0) #4
  %.01014 = add i32 %2, -1
  %3 = icmp sgt i32 %.01014, -1
  br i1 %3, label %.lr.ph, label %.thread

.lr.ph:                                           ; preds = %1, %obj_is_focusable.exit.thread
  %.01015 = phi i32 [ %.010, %obj_is_focusable.exit.thread ], [ %.01014, %1 ]
  %4 = tail call ptr @lv_obj_get_child(ptr noundef %0, i32 noundef %.01015) #4
  %5 = tail call zeroext i1 @lv_obj_has_flag(ptr noundef %4, i32 noundef 1) #4
  br i1 %5, label %obj_is_focusable.exit.thread, label %obj_is_focusable.exit

obj_is_focusable.exit:                            ; preds = %.lr.ph
  %6 = tail call zeroext i1 @lv_obj_has_flag(ptr noundef %4, i32 noundef 6) #4
  br i1 %6, label %.thread, label %obj_is_focusable.exit.thread

obj_is_focusable.exit.thread:                     ; preds = %.lr.ph, %obj_is_focusable.exit
  %.010 = add nsw i32 %.01015, -1
  %7 = icmp sgt i32 %.01015, 0
  br i1 %7, label %.lr.ph, label %.thread

.thread:                                          ; preds = %obj_is_focusable.exit.thread, %obj_is_focusable.exit, %1
  %.2 = phi ptr [ null, %1 ], [ %4, %obj_is_focusable.exit ], [ null, %obj_is_focusable.exit.thread ]
  ret ptr %.2
}